target datalayout = "e-m:e-p270:32:32-p271:32:32-p272:64:64-i64:64-i128:128-f80:128-n8:16:32:64-S128"
target triple = "x86_64-pc-linux-gnu"

%struct.AVFilterContext = type { ptr, ptr, ptr, ptr, ptr, i32, ptr, ptr, i32, ptr, ptr, i32, i32, ptr, ptr, ptr, ptr, i32, ptr, i32, i32 }
%struct.HWDownloadContext = type { ptr, ptr, ptr }
%struct.AVFilterFormatsConfig = type { ptr, ptr, ptr, ptr, ptr }
%struct.AVFilterLink = type { ptr, ptr, ptr, ptr, i32, i32, i32, i32, %struct.AVRational, i32, i32, i32, %struct.AVChannelLayout, %struct.AVRational, ptr, i32, %struct.AVFilterFormatsConfig, %struct.AVFilterFormatsConfig }
%struct.AVChannelLayout = type { i32, i32, %union.anon.1, ptr }
%union.anon.1 = type { i64 }
%struct.AVRational = type { i32, i32 }
%struct.AVBufferRef = type { ptr, ptr, i64 }
%struct.FilterLink = type { %struct.AVFilterLink, ptr, i64, i64, i32, i32, i64, i64, i64, i64, %struct.AVRational, ptr }

@.str.6 = private unnamed_addr constant [49 x i8] c"The input must have a hardware frame reference.\0A\00", align 1

; Function Attrs: inlinehint nounwind uwtable
define internal ptr @ff_filter_link(ptr noundef %0) #4 {
  %2 = alloca ptr, align 8
  store ptr %0, ptr %2, align 8, !tbaa !29
  %3 = load ptr, ptr %2, align 8, !tbaa !29
  ret ptr %3
}

; Function Attrs: nounwind uwtable
define internal i32 @hwdownload_config_input(ptr noundef %0) #1 {
  %2 = alloca i32, align 4
  %3 = alloca ptr, align 8
  %4 = alloca ptr, align 8
  %5 = alloca ptr, align 8
  %6 = alloca ptr, align 8
  %7 = alloca i32, align 4
  store ptr %0, ptr %3, align 8, !tbaa !29
  call void @llvm.lifetime.start.p0(i64 8, ptr %4) #5
  %8 = load ptr, ptr %3, align 8, !tbaa !29
  %9 = call ptr @ff_filter_link(ptr noundef %8)
  store ptr %9, ptr %4, align 8, !tbaa !64
  call void @llvm.lifetime.start.p0(i64 8, ptr %5) #5
  %10 = load ptr, ptr %3, align 8, !tbaa !29
  %11 = getelementptr inbounds nuw %struct.AVFilterLink, ptr %10, i32 0, i32 2
  %12 = load ptr, ptr %11, align 8, !tbaa !33
  store ptr %12, ptr %5, align 8, !tbaa !4
  call void @llvm.lifetime.start.p0(i64 8, ptr %6) #5
  %13 = load ptr, ptr %5, align 8, !tbaa !4
  %14 = getelementptr inbounds nuw %struct.AVFilterContext, ptr %13, i32 0, i32 9
  %15 = load ptr, ptr %14, align 8, !tbaa !9
  store ptr %15, ptr %6, align 8, !tbaa !22
  %16 = load ptr, ptr %6, align 8, !tbaa !22
  %17 = getelementptr inbounds nuw %struct.HWDownloadContext, ptr %16, i32 0, i32 1
  call void @av_buffer_unref(ptr noundef %17)
  %18 = load ptr, ptr %4, align 8, !tbaa !64
  %19 = getelementptr inbounds nuw %struct.FilterLink, ptr %18, i32 0, i32 11
  %20 = load ptr, ptr %19, align 8, !tbaa !66
  %21 = icmp ne ptr %20, null
  br i1 %21, label %24, label %22

22:                                               ; preds = %1
  %23 = load ptr, ptr %6, align 8, !tbaa !22
  call void (ptr, i32, ptr, ...) @av_log(ptr noundef %23, i32 noundef 16, ptr noundef @.str.6)
  store i32 -22, ptr %2, align 4
  store i32 1, ptr %7, align 4
  br label %44

24:                                               ; preds = %1
  %25 = load ptr, ptr %4, align 8, !tbaa !64
  %26 = getelementptr inbounds nuw %struct.FilterLink, ptr %25, i32 0, i32 11
  %27 = load ptr, ptr %26, align 8, !tbaa !66
  %28 = call ptr @av_buffer_ref(ptr noundef %27)
  %29 = load ptr, ptr %6, align 8, !tbaa !22
  %30 = getelementptr inbounds nuw %struct.HWDownloadContext, ptr %29, i32 0, i32 1
  store ptr %28, ptr %30, align 8, !tbaa !42
  %31 = load ptr, ptr %6, align 8, !tbaa !22
  %32 = getelementptr inbounds nuw %struct.HWDownloadContext, ptr %31, i32 0, i32 1
  %33 = load ptr, ptr %32, align 8, !tbaa !42
  %34 = icmp ne ptr %33, null
  br i1 %34, label %36, label %35

35:                                               ; preds = %24
  store i32 -12, ptr %2, align 4
  store i32 1, ptr %7, align 4
  br label %44

36:                                               ; preds = %24
  %37 = load ptr, ptr %6, align 8, !tbaa !22
  %38 = getelementptr inbounds nuw %struct.HWDownloadContext, ptr %37, i32 0, i32 1
  %39 = load ptr, ptr %38, align 8, !tbaa !42
  %40 = getelementptr inbounds nuw %struct.AVBufferRef, ptr %39, i32 0, i32 1
  %41 = load ptr, ptr %40, align 8, !tbaa !52
  %42 = load ptr, ptr %6, align 8, !tbaa !22
  %43 = getelementptr inbounds nuw %struct.HWDownloadContext, ptr %42, i32 0, i32 2
  store ptr %41, ptr %43, align 8, !tbaa !51
  store i32 0, ptr %2, align 4
  store i32 1, ptr %7, align 4
  br label %44

44:                                               ; preds = %36, %35, %22
  call void @llvm.lifetime.end.p0(i64 8, ptr %6) #5
  call void @llvm.lifetime.end.p0(i64 8, ptr %5) #5
  call void @llvm.lifetime.end.p0(i64 8, ptr %4) #5
  %45 = load i32, ptr %2, align 4
  ret i32 %45
}