; Function Attrs: nounwind uwtable
define internal range(i32 -22, 1) i32 @hwdownload_config_input(ptr noundef readonly captures(none) %0) #1 {
  %2 = getelementptr inbounds nuw i8, ptr %0, i64 16
  %3 = load ptr, ptr %2, align 8, !tbaa !24
  %4 = getelementptr inbounds nuw i8, ptr %3, i64 72
  %5 = load ptr, ptr %4, align 8, !tbaa !4
  %6 = getelementptr inbounds nuw i8, ptr %5, i64 8
  tail call void @av_buffer_unref(ptr noundef nonnull %6) #4
  %7 = getelementptr inbounds nuw i8, ptr %0, i64 272
  %8 = load ptr, ptr %7, align 8, !tbaa !58
  %.not = icmp eq ptr %8, null
  br i1 %.not, label %9, label %10

9:                                                ; preds = %1
  tail call void (ptr, i32, ptr, ...) @av_log(ptr noundef nonnull %5, i32 noundef 16, ptr noundef nonnull @.str.6) #4
  br label %16

10:                                               ; preds = %1
  %11 = tail call ptr @av_buffer_ref(ptr noundef nonnull %8) #4
  store ptr %11, ptr %6, align 8, !tbaa !36
  %.not13 = icmp eq ptr %11, null
  br i1 %.not13, label %16, label %12

12:                                               ; preds = %10
  %13 = getelementptr inbounds nuw i8, ptr %11, i64 8
  %14 = load ptr, ptr %13, align 8, !tbaa !46
  %15 = getelementptr inbounds nuw i8, ptr %5, i64 16
  store ptr %14, ptr %15, align 8, !tbaa !45
  br label %16

16:                                               ; preds = %10, %12, %9
  %.0 = phi i32 [ 0, %12 ], [ -22, %9 ], [ -12, %10 ]
  ret i32 %.0
}